target datalayout = "e-m:e-p270:32:32-p271:32:32-p272:64:64-i64:64-i128:128-f80:128-n8:16:32:64-S128"
target triple = "x86_64-pc-linux-gnu"

%"class.clang::UnqualifiedId" = type { i32, %union.anon, %"class.clang::SourceLocation", %"class.clang::SourceLocation" }
%union.anon = type { ptr, [8 x i8] }
%"class.clang::SourceLocation" = type { i32 }
%"class.clang::CXXScopeSpec" = type { %"class.clang::SourceRange", %"class.clang::NestedNameSpecifierLocBuilder", %"class.llvm::ArrayRef" }
%"class.clang::SourceRange" = type { %"class.clang::SourceLocation", %"class.clang::SourceLocation" }
%"class.clang::NestedNameSpecifierLocBuilder" = type { ptr, ptr, i32, i32 }
%"class.llvm::ArrayRef" = type { ptr, i64 }
%"class.clang::ParsedAttributesView" = type { %"class.clang::SourceRange", %"class.llvm::SmallVector.342" }
%"class.llvm::SmallVector.342" = type { %"class.llvm::SmallVectorImpl.343", %"struct.llvm::SmallVectorStorage.346" }
%"class.llvm::SmallVectorImpl.343" = type { %"class.llvm::SmallVectorTemplateBase.344" }
%"class.llvm::SmallVectorTemplateBase.344" = type { %"class.llvm::SmallVectorTemplateCommon.345" }
%"class.llvm::SmallVectorTemplateCommon.345" = type { %"class.llvm::SmallVectorBase" }
%"class.llvm::SmallVectorBase" = type { ptr, i32, i32 }
%"struct.llvm::SmallVectorStorage.346" = type { [48 x i8] }
%"class.clang::Declarator" = type { ptr, %"class.clang::CXXScopeSpec", %"class.clang::UnqualifiedId", %"class.clang::SourceRange", i32, [4 x i8], %"class.clang::DecompositionDeclarator", %"class.llvm::SmallVector.357", i16, %"class.clang::ParsedAttributes", ptr, ptr, ptr, %"class.llvm::ArrayRef", ptr, %union.anon.362, %"class.clang::SourceLocation", %"class.clang::SourceLocation", ptr }
%"class.clang::DecompositionDeclarator" = type <{ %"class.clang::SourceLocation", %"class.clang::SourceLocation", ptr, i32, [4 x i8] }>
%"class.llvm::SmallVector.357" = type { %"class.llvm::SmallVectorImpl.358", %"struct.llvm::SmallVectorStorage.361" }
%"class.llvm::SmallVectorImpl.358" = type { %"class.llvm::SmallVectorTemplateBase.359" }
%"class.llvm::SmallVectorTemplateBase.359" = type { %"class.llvm::SmallVectorTemplateCommon.360" }
%"class.llvm::SmallVectorTemplateCommon.360" = type { %"class.llvm::SmallVectorBase" }
%"struct.llvm::SmallVectorStorage.361" = type { [1408 x i8] }
%"class.clang::ParsedAttributes" = type { %"class.clang::ParsedAttributesView", %"class.clang::AttributePool" }
%"class.clang::AttributePool" = type { ptr, %"class.llvm::SmallVector.342" }
%union.anon.362 = type { [16 x %"struct.clang::DecompositionDeclarator::Binding"] }
%"struct.clang::DecompositionDeclarator::Binding" = type { ptr, %"class.clang::SourceLocation", [4 x i8], %"class.std::optional" }
%"class.std::optional" = type { %"struct.std::_Optional_base" }
%"struct.std::_Optional_base" = type { %"struct.std::_Optional_payload" }
%"struct.std::_Optional_payload" = type { %"struct.std::_Optional_payload.base", [7 x i8] }
%"struct.std::_Optional_payload.base" = type { %"struct.std::_Optional_payload_base.base" }
%"struct.std::_Optional_payload_base.base" = type <{ %"union.std::_Optional_payload_base<clang::ParsedAttributes>::_Storage", i8 }>
%"union.std::_Optional_payload_base<clang::ParsedAttributes>::_Storage" = type { %"class.clang::ParsedAttributes" }
%"struct.clang::UnqualifiedId::OFI" = type { i32, [3 x %"class.clang::SourceLocation"] }

; Function Attrs: mustprogress nounwind uwtable
define linkonce_odr hidden noundef zeroext i1 @_ZN5clang13CXXMethodDecl26isStaticOverloadedOperatorENS_22OverloadedOperatorKindE(i32 noundef %0) #0 comdat align 2 {
  %2 = alloca i32, align 4
  store i32 %0, ptr %2, align 4
  %3 = load i32, ptr %2, align 4
  %4 = icmp eq i32 %3, 1
  br i1 %4, label %14, label %5

5:                                                ; preds = %1
  %6 = load i32, ptr %2, align 4
  %7 = icmp eq i32 %6, 3
  br i1 %7, label %14, label %8

8:                                                ; preds = %5
  %9 = load i32, ptr %2, align 4
  %10 = icmp eq i32 %9, 2
  br i1 %10, label %14, label %11

11:                                               ; preds = %8
  %12 = load i32, ptr %2, align 4
  %13 = icmp eq i32 %12, 4
  br label %14

14:                                               ; preds = %11, %8, %5, %1
  %15 = phi i1 [ true, %8 ], [ true, %5 ], [ true, %1 ], [ %13, %11 ]
  ret i1 %15
}

; Function Attrs: mustprogress nounwind uwtable
define linkonce_odr hidden noundef i32 @_ZNK5clang13UnqualifiedId7getKindEv(ptr noundef nonnull align 8 dereferenceable(32) %0) #0 comdat align 2 {
  %2 = alloca ptr, align 8
  store ptr %0, ptr %2, align 8
  %3 = load ptr, ptr %2, align 8
  %4 = getelementptr inbounds nuw %"class.clang::UnqualifiedId", ptr %3, i32 0, i32 0
  %5 = load i32, ptr %4, align 8
  ret i32 %5
}

; Function Attrs: mustprogress nounwind uwtable
define linkonce_odr hidden noundef nonnull align 8 dereferenceable(32) ptr @_ZN5clang10Declarator7getNameEv(ptr noundef nonnull align 8 dereferenceable(4456) %0) #0 comdat align 2 {
  %2 = alloca ptr, align 8
  store ptr %0, ptr %2, align 8
  %3 = load ptr, ptr %2, align 8
  %4 = getelementptr inbounds nuw %"class.clang::Declarator", ptr %3, i32 0, i32 2
  ret ptr %4
}

; Function Attrs: mustprogress nounwind uwtable
define linkonce_odr hidden noundef zeroext i1 @_ZNK4llvm8ArrayRefIPN5clang21TemplateParameterListEE5emptyEv(ptr noundef nonnull align 8 dereferenceable(16) %0) #0 comdat align 2 {
  %2 = alloca ptr, align 8
  store ptr %0, ptr %2, align 8
  %3 = load ptr, ptr %2, align 8
  %4 = getelementptr inbounds nuw %"class.llvm::ArrayRef", ptr %3, i32 0, i32 1
  %5 = load i64, ptr %4, align 8
  %6 = icmp eq i64 %5, 0
  ret i1 %6
}

; Function Attrs: mustprogress nounwind uwtable
define linkonce_odr hidden { ptr, i64 } @_ZNK5clang10Declarator25getTemplateParameterListsEv(ptr noundef nonnull align 8 dereferenceable(4456) %0) #0 comdat align 2 {
  %2 = alloca %"class.llvm::ArrayRef", align 8
  %3 = alloca ptr, align 8
  store ptr %0, ptr %3, align 8
  %4 = load ptr, ptr %3, align 8
  %5 = getelementptr inbounds nuw %"class.clang::Declarator", ptr %4, i32 0, i32 13
  call void @llvm.memcpy.p0.p0.i64(ptr align 8 %2, ptr align 8 %5, i64 16, i1 false)
  %6 = load { ptr, i64 }, ptr %2, align 8
  ret { ptr, i64 } %6
}

; Function Attrs: mustprogress nounwind uwtable
define linkonce_odr hidden noundef i32 @_ZNK5clang8DeclSpec19getStorageClassSpecEv(ptr noundef nonnull align 8 dereferenceable(360) %0) #0 comdat align 2 {
  %2 = alloca ptr, align 8
  store ptr %0, ptr %2, align 8
  %3 = load ptr, ptr %2, align 8
  %4 = load i64, ptr %3, align 8
  %5 = and i64 %4, 7
  %6 = trunc i64 %5 to i32
  ret i32 %6
}

; Function Attrs: mustprogress nounwind uwtable
define linkonce_odr hidden noundef nonnull align 8 dereferenceable(360) ptr @_ZNK5clang10Declarator11getDeclSpecEv(ptr noundef nonnull align 8 dereferenceable(4456) %0) #0 comdat align 2 {
  %2 = alloca ptr, align 8
  store ptr %0, ptr %2, align 8
  %3 = load ptr, ptr %2, align 8
  %4 = getelementptr inbounds nuw %"class.clang::Declarator", ptr %3, i32 0, i32 0
  %5 = load ptr, ptr %4, align 8
  ret ptr %5
}

; Function Attrs: mustprogress nounwind uwtable
define dso_local noundef zeroext i1 @_ZN5clang10Declarator14isStaticMemberEv(ptr noundef nonnull align 8 dereferenceable(4456) %0) #0 align 2 {
  %2 = alloca ptr, align 8
  %3 = alloca %"class.llvm::ArrayRef", align 8
  store ptr %0, ptr %2, align 8
  %4 = load ptr, ptr %2, align 8
  %5 = call noundef nonnull align 8 dereferenceable(360) ptr @_ZNK5clang10Declarator11getDeclSpecEv(ptr noundef nonnull align 8 dereferenceable(4456) %4)
  %6 = call noundef i32 @_ZNK5clang8DeclSpec19getStorageClassSpecEv(ptr noundef nonnull align 8 dereferenceable(360) %5)
  %7 = icmp eq i32 %6, 3
  br i1 %7, label %29, label %8

8:                                                ; preds = %1
  %9 = call noundef zeroext i1 @_ZNK5clang10Declarator23isDeclarationOfFunctionEv(ptr noundef nonnull align 8 dereferenceable(4456) %4)
  br i1 %9, label %17, label %10

10:                                               ; preds = %8
  %11 = call { ptr, i64 } @_ZNK5clang10Declarator25getTemplateParameterListsEv(ptr noundef nonnull align 8 dereferenceable(4456) %4)
  %12 = getelementptr inbounds nuw { ptr, i64 }, ptr %3, i32 0, i32 0
  %13 = extractvalue { ptr, i64 } %11, 0
  store ptr %13, ptr %12, align 8
  %14 = getelementptr inbounds nuw { ptr, i64 }, ptr %3, i32 0, i32 1
  %15 = extractvalue { ptr, i64 } %11, 1
  store i64 %15, ptr %14, align 8
  %16 = call noundef zeroext i1 @_ZNK4llvm8ArrayRefIPN5clang21TemplateParameterListEE5emptyEv(ptr noundef nonnull align 8 dereferenceable(16) %3)
  br i1 %16, label %17, label %29

17:                                               ; preds = %10, %8
  %18 = call noundef nonnull align 8 dereferenceable(32) ptr @_ZN5clang10Declarator7getNameEv(ptr noundef nonnull align 8 dereferenceable(4456) %4)
  %19 = call noundef i32 @_ZNK5clang13UnqualifiedId7getKindEv(ptr noundef nonnull align 8 dereferenceable(32) %18)
  %20 = icmp eq i32 %19, 1
  br i1 %20, label %21, label %27

21:                                               ; preds = %17
  %22 = call noundef nonnull align 8 dereferenceable(32) ptr @_ZN5clang10Declarator7getNameEv(ptr noundef nonnull align 8 dereferenceable(4456) %4)
  %23 = getelementptr inbounds nuw %"class.clang::UnqualifiedId", ptr %22, i32 0, i32 1
  %24 = getelementptr inbounds nuw %"struct.clang::UnqualifiedId::OFI", ptr %23, i32 0, i32 0
  %25 = load i32, ptr %24, align 8
  %26 = call noundef zeroext i1 @_ZN5clang13CXXMethodDecl26isStaticOverloadedOperatorENS_22OverloadedOperatorKindE(i32 noundef %25)
  br label %27

27:                                               ; preds = %21, %17
  %28 = phi i1 [ false, %17 ], [ %26, %21 ]
  br label %29

29:                                               ; preds = %27, %10, %1
  %30 = phi i1 [ true, %10 ], [ true, %1 ], [ %28, %27 ]
  ret i1 %30
}