; Function Attrs: mustprogress nounwind uwtable
define dso_local noundef zeroext i1 @_ZN5clang10Declarator14isStaticMemberEv(ptr noundef nonnull align 8 dereferenceable(4456) %0) local_unnamed_addr #2 align 2 {
  %2 = load ptr, ptr %0, align 8
  %3 = load i64, ptr %2, align 8
  %4 = and i64 %3, 7
  %5 = icmp eq i64 %4, 3
  br i1 %5, label %17, label %6

6:                                                ; preds = %1
  %7 = tail call noundef zeroext i1 @_ZNK5clang10Declarator23isDeclarationOfFunctionEv(ptr noundef nonnull align 8 dereferenceable(4456) %0)
  %.sroa.2.0..sroa_idx.i = getelementptr inbounds i8, ptr %0, i64 1736
  %.sroa.2.0.copyload.i = load i64, ptr %.sroa.2.0..sroa_idx.i, align 8
  %8 = icmp eq i64 %.sroa.2.0.copyload.i, 0
  %or.cond = select i1 %7, i1 true, i1 %8
  br i1 %or.cond, label %9, label %17

9:                                                ; preds = %6
  %10 = getelementptr inbounds nuw i8, ptr %0, i64 56
  %11 = load i32, ptr %10, align 8
  %12 = icmp eq i32 %11, 1
  br i1 %12, label %13, label %17

13:                                               ; preds = %9
  %14 = getelementptr inbounds i8, ptr %0, i64 64
  %15 = load i32, ptr %14, align 8
  %16 = add i32 %15, -1
  %switch.selectcmp.i = icmp ult i32 %16, 4
  br label %17

17:                                               ; preds = %6, %9, %13, %1
  %18 = phi i1 [ true, %1 ], [ false, %9 ], [ %switch.selectcmp.i, %13 ], [ true, %6 ]
  ret i1 %18
}